target datalayout = "e-m:e-p270:32:32-p271:32:32-p272:64:64-i64:64-i128:128-f80:128-n8:16:32:64-S128"
target triple = "x86_64-pc-linux-gnu"

%struct.FunctionCallInfoBaseData = type { ptr, ptr, ptr, i32, i8, i16, [0 x %struct.NullableDatum] }
%struct.NullableDatum = type { i64, i8 }
%struct.varattrib_1b = type { i8, [0 x i8] }
%struct.varattrib_1b_e = type { i8, i8, [0 x i8] }
%struct.anon = type { i32, [0 x i8] }

@.str = private unnamed_addr constant [5 x i8] c"NULL\00", align 1

; Function Attrs: nounwind uwtable
define dso_local i64 @quote_ident(ptr noundef %0) #0 {
  %2 = alloca ptr, align 8
  %3 = alloca ptr, align 8
  %4 = alloca ptr, align 8
  %5 = alloca ptr, align 8
  store ptr %0, ptr %2, align 8
  call void @llvm.lifetime.start.p0(i64 8, ptr %3) #5
  %6 = load ptr, ptr %2, align 8
  %7 = getelementptr inbounds nuw %struct.FunctionCallInfoBaseData, ptr %6, i32 0, i32 6
  %8 = getelementptr inbounds [0 x %struct.NullableDatum], ptr %7, i64 0, i64 0
  %9 = getelementptr inbounds nuw %struct.NullableDatum, ptr %8, i32 0, i32 0
  %10 = load i64, ptr %9, align 8
  %11 = call ptr @DatumGetPointer(i64 noundef %10)
  %12 = call ptr @pg_detoast_datum_packed(ptr noundef %11)
  store ptr %12, ptr %3, align 8
  call void @llvm.lifetime.start.p0(i64 8, ptr %4) #5
  call void @llvm.lifetime.start.p0(i64 8, ptr %5) #5
  %13 = load ptr, ptr %3, align 8
  %14 = call ptr @text_to_cstring(ptr noundef %13)
  store ptr %14, ptr %5, align 8
  %15 = load ptr, ptr %5, align 8
  %16 = call ptr @quote_identifier(ptr noundef %15)
  store ptr %16, ptr %4, align 8
  %17 = load ptr, ptr %4, align 8
  %18 = call ptr @cstring_to_text(ptr noundef %17)
  %19 = call i64 @PointerGetDatum(ptr noundef %18)
  call void @llvm.lifetime.end.p0(i64 8, ptr %5) #5
  call void @llvm.lifetime.end.p0(i64 8, ptr %4) #5
  call void @llvm.lifetime.end.p0(i64 8, ptr %3) #5
  ret i64 %19
}

; Function Attrs: nocallback nofree nosync nounwind willreturn memory(argmem: readwrite)
declare void @llvm.lifetime.start.p0(i64 immarg, ptr captures(none)) #1

declare ptr @pg_detoast_datum_packed(ptr noundef) #2

; Function Attrs: inlinehint nounwind uwtable
define internal ptr @DatumGetPointer(i64 noundef %0) #3 {
  %2 = alloca i64, align 8
  store i64 %0, ptr %2, align 8
  %3 = load i64, ptr %2, align 8
  %4 = inttoptr i64 %3 to ptr
  ret ptr %4
}

declare ptr @text_to_cstring(ptr noundef) #2

declare ptr @quote_identifier(ptr noundef) #2

; Function Attrs: inlinehint nounwind uwtable
define internal i64 @PointerGetDatum(ptr noundef %0) #3 {
  %2 = alloca ptr, align 8
  store ptr %0, ptr %2, align 8
  %3 = load ptr, ptr %2, align 8
  %4 = ptrtoint ptr %3 to i64
  ret i64 %4
}

declare ptr @cstring_to_text(ptr noundef) #2

; Function Attrs: nocallback nofree nosync nounwind willreturn memory(argmem: readwrite)
declare void @llvm.lifetime.end.p0(i64 immarg, ptr captures(none)) #1

; Function Attrs: nounwind uwtable
define dso_local i64 @quote_literal(ptr noundef %0) #0 {
  %2 = alloca ptr, align 8
  %3 = alloca ptr, align 8
  %4 = alloca ptr, align 8
  %5 = alloca ptr, align 8
  %6 = alloca ptr, align 8
  %7 = alloca i32, align 4
  store ptr %0, ptr %2, align 8
  call void @llvm.lifetime.start.p0(i64 8, ptr %3) #5
  %8 = load ptr, ptr %2, align 8
  %9 = getelementptr inbounds nuw %struct.FunctionCallInfoBaseData, ptr %8, i32 0, i32 6
  %10 = getelementptr inbounds [0 x %struct.NullableDatum], ptr %9, i64 0, i64 0
  %11 = getelementptr inbounds nuw %struct.NullableDatum, ptr %10, i32 0, i32 0
  %12 = load i64, ptr %11, align 8
  %13 = call ptr @DatumGetPointer(i64 noundef %12)
  %14 = call ptr @pg_detoast_datum_packed(ptr noundef %13)
  store ptr %14, ptr %3, align 8
  call void @llvm.lifetime.start.p0(i64 8, ptr %4) #5
  call void @llvm.lifetime.start.p0(i64 8, ptr %5) #5
  call void @llvm.lifetime.start.p0(i64 8, ptr %6) #5
  call void @llvm.lifetime.start.p0(i64 4, ptr %7) #5
  %15 = load ptr, ptr %3, align 8
  %16 = getelementptr inbounds nuw %struct.varattrib_1b, ptr %15, i32 0, i32 0
  %17 = load i8, ptr %16, align 1
  %18 = zext i8 %17 to i32
  %19 = icmp eq i32 %18, 1
  br i1 %19, label %20, label %48

20:                                               ; preds = %1
  %21 = load ptr, ptr %3, align 8
  %22 = getelementptr inbounds nuw %struct.varattrib_1b_e, ptr %21, i32 0, i32 1
  %23 = load i8, ptr %22, align 1
  %24 = zext i8 %23 to i32
  %25 = icmp eq i32 %24, 1
  br i1 %25, label %26, label %27

26:                                               ; preds = %20
  br label %44

27:                                               ; preds = %20
  %28 = load ptr, ptr %3, align 8
  %29 = getelementptr inbounds nuw %struct.varattrib_1b_e, ptr %28, i32 0, i32 1
  %30 = load i8, ptr %29, align 1
  %31 = zext i8 %30 to i32
  %32 = and i32 %31, -2
  %33 = icmp eq i32 %32, 2
  br i1 %33, label %34, label %35

34:                                               ; preds = %27
  br label %42

35:                                               ; preds = %27
  %36 = load ptr, ptr %3, align 8
  %37 = getelementptr inbounds nuw %struct.varattrib_1b_e, ptr %36, i32 0, i32 1
  %38 = load i8, ptr %37, align 1
  %39 = zext i8 %38 to i32
  %40 = icmp eq i32 %39, 18
  %41 = select i1 %40, i64 16, i64 0
  br label %42

42:                                               ; preds = %35, %34
  %43 = phi i64 [ 8, %34 ], [ %41, %35 ]
  br label %44

44:                                               ; preds = %42, %26
  %45 = phi i64 [ 8, %26 ], [ %43, %42 ]
  %46 = add i64 2, %45
  %47 = sub i64 %46, 2
  br label %74

48:                                               ; preds = %1
  %49 = load ptr, ptr %3, align 8
  %50 = getelementptr inbounds nuw %struct.varattrib_1b, ptr %49, i32 0, i32 0
  %51 = load i8, ptr %50, align 1
  %52 = zext i8 %51 to i32
  %53 = and i32 %52, 1
  %54 = icmp eq i32 %53, 1
  br i1 %54, label %55, label %64

55:                                               ; preds = %48
  %56 = load ptr, ptr %3, align 8
  %57 = getelementptr inbounds nuw %struct.varattrib_1b, ptr %56, i32 0, i32 0
  %58 = load i8, ptr %57, align 1
  %59 = zext i8 %58 to i32
  %60 = ashr i32 %59, 1
  %61 = and i32 %60, 127
  %62 = sext i32 %61 to i64
  %63 = sub i64 %62, 1
  br label %72

64:                                               ; preds = %48
  %65 = load ptr, ptr %3, align 8
  %66 = getelementptr inbounds nuw %struct.anon, ptr %65, i32 0, i32 0
  %67 = load i32, ptr %66, align 4
  %68 = lshr i32 %67, 2
  %69 = and i32 %68, 1073741823
  %70 = sub i32 %69, 4
  %71 = zext i32 %70 to i64
  br label %72

72:                                               ; preds = %64, %55
  %73 = phi i64 [ %63, %55 ], [ %71, %64 ]
  br label %74

74:                                               ; preds = %72, %44
  %75 = phi i64 [ %47, %44 ], [ %73, %72 ]
  %76 = trunc i64 %75 to i32
  store i32 %76, ptr %7, align 4
  %77 = load i32, ptr %7, align 4
  %78 = mul i32 %77, 2
  %79 = add i32 %78, 3
  %80 = add i32 %79, 4
  %81 = sext i32 %80 to i64
  %82 = call ptr @palloc(i64 noundef %81)
  store ptr %82, ptr %4, align 8
  %83 = load ptr, ptr %3, align 8
  %84 = getelementptr inbounds nuw %struct.varattrib_1b, ptr %83, i32 0, i32 0
  %85 = load i8, ptr %84, align 1
  %86 = zext i8 %85 to i32
  %87 = and i32 %86, 1
  %88 = icmp eq i32 %87, 1
  br i1 %88, label %89, label %93

89:                                               ; preds = %74
  %90 = load ptr, ptr %3, align 8
  %91 = getelementptr inbounds nuw %struct.varattrib_1b, ptr %90, i32 0, i32 1
  %92 = getelementptr inbounds [0 x i8], ptr %91, i64 0, i64 0
  br label %97

93:                                               ; preds = %74
  %94 = load ptr, ptr %3, align 8
  %95 = getelementptr inbounds nuw %struct.anon, ptr %94, i32 0, i32 1
  %96 = getelementptr inbounds [0 x i8], ptr %95, i64 0, i64 0
  br label %97

97:                                               ; preds = %93, %89
  %98 = phi ptr [ %92, %89 ], [ %96, %93 ]
  store ptr %98, ptr %5, align 8
  %99 = load ptr, ptr %4, align 8
  %100 = getelementptr inbounds nuw %struct.anon, ptr %99, i32 0, i32 1
  %101 = getelementptr inbounds [0 x i8], ptr %100, i64 0, i64 0
  store ptr %101, ptr %6, align 8
  %102 = load ptr, ptr %6, align 8
  %103 = load ptr, ptr %5, align 8
  %104 = load i32, ptr %7, align 4
  %105 = sext i32 %104 to i64
  %106 = call i64 @quote_literal_internal(ptr noundef %102, ptr noundef %103, i64 noundef %105)
  %107 = add i64 4, %106
  %108 = trunc i64 %107 to i32
  %109 = shl i32 %108, 2
  %110 = load ptr, ptr %4, align 8
  %111 = getelementptr inbounds nuw %struct.anon, ptr %110, i32 0, i32 0
  store i32 %109, ptr %111, align 4
  %112 = load ptr, ptr %4, align 8
  %113 = call i64 @PointerGetDatum(ptr noundef %112)
  call void @llvm.lifetime.end.p0(i64 4, ptr %7) #5
  call void @llvm.lifetime.end.p0(i64 8, ptr %6) #5
  call void @llvm.lifetime.end.p0(i64 8, ptr %5) #5
  call void @llvm.lifetime.end.p0(i64 8, ptr %4) #5
  call void @llvm.lifetime.end.p0(i64 8, ptr %3) #5
  ret i64 %113
}

declare ptr @palloc(i64 noundef) #2

; Function Attrs: nounwind uwtable
define internal i64 @quote_literal_internal(ptr noundef %0, ptr noundef %1, i64 noundef %2) #0 {
  %4 = alloca ptr, align 8
  %5 = alloca ptr, align 8
  %6 = alloca i64, align 8
  %7 = alloca ptr, align 8
  %8 = alloca ptr, align 8
  store ptr %0, ptr %4, align 8
  store ptr %1, ptr %5, align 8
  store i64 %2, ptr %6, align 8
  call void @llvm.lifetime.start.p0(i64 8, ptr %7) #5
  call void @llvm.lifetime.start.p0(i64 8, ptr %8) #5
  %9 = load ptr, ptr %4, align 8
  store ptr %9, ptr %8, align 8
  %10 = load ptr, ptr %5, align 8
  store ptr %10, ptr %7, align 8
  br label %11

11:                                               ; preds = %26, %3
  %12 = load ptr, ptr %7, align 8
  %13 = load ptr, ptr %5, align 8
  %14 = load i64, ptr %6, align 8
  %15 = getelementptr inbounds nuw i8, ptr %13, i64 %14
  %16 = icmp ult ptr %12, %15
  br i1 %16, label %17, label %29

17:                                               ; preds = %11
  %18 = load ptr, ptr %7, align 8
  %19 = load i8, ptr %18, align 1
  %20 = sext i8 %19 to i32
  %21 = icmp eq i32 %20, 92
  br i1 %21, label %22, label %25

22:                                               ; preds = %17
  %23 = load ptr, ptr %4, align 8
  %24 = getelementptr inbounds nuw i8, ptr %23, i32 1
  store ptr %24, ptr %4, align 8
  store i8 69, ptr %23, align 1
  br label %29

25:                                               ; preds = %17
  br label %26

26:                                               ; preds = %25
  %27 = load ptr, ptr %7, align 8
  %28 = getelementptr inbounds nuw i8, ptr %27, i32 1
  store ptr %28, ptr %7, align 8
  br label %11, !llvm.loop !4

29:                                               ; preds = %22, %11
  %30 = load ptr, ptr %4, align 8
  %31 = getelementptr inbounds nuw i8, ptr %30, i32 1
  store ptr %31, ptr %4, align 8
  store i8 39, ptr %30, align 1
  br label %32

32:                                               ; preds = %51, %29
  %33 = load i64, ptr %6, align 8
  %34 = add i64 %33, -1
  store i64 %34, ptr %6, align 8
  %35 = icmp ugt i64 %33, 0
  br i1 %35, label %36, label %57

36:                                               ; preds = %32
  %37 = load ptr, ptr %5, align 8
  %38 = load i8, ptr %37, align 1
  %39 = sext i8 %38 to i32
  %40 = icmp eq i32 %39, 39
  br i1 %40, label %46, label %41

41:                                               ; preds = %36
  %42 = load ptr, ptr %5, align 8
  %43 = load i8, ptr %42, align 1
  %44 = sext i8 %43 to i32
  %45 = icmp eq i32 %44, 92
  br i1 %45, label %46, label %51

46:                                               ; preds = %41, %36
  %47 = load ptr, ptr %5, align 8
  %48 = load i8, ptr %47, align 1
  %49 = load ptr, ptr %4, align 8
  %50 = getelementptr inbounds nuw i8, ptr %49, i32 1
  store ptr %50, ptr %4, align 8
  store i8 %48, ptr %49, align 1
  br label %51

51:                                               ; preds = %46, %41
  %52 = load ptr, ptr %5, align 8
  %53 = getelementptr inbounds nuw i8, ptr %52, i32 1
  store ptr %53, ptr %5, align 8
  %54 = load i8, ptr %52, align 1
  %55 = load ptr, ptr %4, align 8
  %56 = getelementptr inbounds nuw i8, ptr %55, i32 1
  store ptr %56, ptr %4, align 8
  store i8 %54, ptr %55, align 1
  br label %32, !llvm.loop !6

57:                                               ; preds = %32
  %58 = load ptr, ptr %4, align 8
  %59 = getelementptr inbounds nuw i8, ptr %58, i32 1
  store ptr %59, ptr %4, align 8
  store i8 39, ptr %58, align 1
  %60 = load ptr, ptr %4, align 8
  %61 = load ptr, ptr %8, align 8
  %62 = ptrtoint ptr %60 to i64
  %63 = ptrtoint ptr %61 to i64
  %64 = sub i64 %62, %63
  call void @llvm.lifetime.end.p0(i64 8, ptr %8) #5
  call void @llvm.lifetime.end.p0(i64 8, ptr %7) #5
  ret i64 %64
}

; Function Attrs: nounwind uwtable
define dso_local ptr @quote_literal_cstr(ptr noundef %0) #0 {
  %2 = alloca ptr, align 8
  %3 = alloca ptr, align 8
  %4 = alloca i32, align 4
  %5 = alloca i32, align 4
  store ptr %0, ptr %2, align 8
  call void @llvm.lifetime.start.p0(i64 8, ptr %3) #5
  call void @llvm.lifetime.start.p0(i64 4, ptr %4) #5
  call void @llvm.lifetime.start.p0(i64 4, ptr %5) #5
  %6 = load ptr, ptr %2, align 8
  %7 = call i64 @strlen(ptr noundef %6) #6
  %8 = trunc i64 %7 to i32
  store i32 %8, ptr %4, align 4
  %9 = load i32, ptr %4, align 4
  %10 = mul i32 %9, 2
  %11 = add i32 %10, 3
  %12 = add i32 %11, 1
  %13 = sext i32 %12 to i64
  %14 = call ptr @palloc(i64 noundef %13)
  store ptr %14, ptr %3, align 8
  %15 = load ptr, ptr %3, align 8
  %16 = load ptr, ptr %2, align 8
  %17 = load i32, ptr %4, align 4
  %18 = sext i32 %17 to i64
  %19 = call i64 @quote_literal_internal(ptr noundef %15, ptr noundef %16, i64 noundef %18)
  %20 = trunc i64 %19 to i32
  store i32 %20, ptr %5, align 4
  %21 = load ptr, ptr %3, align 8
  %22 = load i32, ptr %5, align 4
  %23 = sext i32 %22 to i64
  %24 = getelementptr inbounds i8, ptr %21, i64 %23
  store i8 0, ptr %24, align 1
  %25 = load ptr, ptr %3, align 8
  call void @llvm.lifetime.end.p0(i64 4, ptr %5) #5
  call void @llvm.lifetime.end.p0(i64 4, ptr %4) #5
  call void @llvm.lifetime.end.p0(i64 8, ptr %3) #5
  ret ptr %25
}

; Function Attrs: nounwind willreturn memory(read)
declare i64 @strlen(ptr noundef) #4

; Function Attrs: nounwind uwtable
define dso_local i64 @quote_nullable(ptr noundef %0) #0 {
  %2 = alloca i64, align 8
  %3 = alloca ptr, align 8
  store ptr %0, ptr %3, align 8
  %4 = load ptr, ptr %3, align 8
  %5 = getelementptr inbounds nuw %struct.FunctionCallInfoBaseData, ptr %4, i32 0, i32 6
  %6 = getelementptr inbounds [0 x %struct.NullableDatum], ptr %5, i64 0, i64 0
  %7 = getelementptr inbounds nuw %struct.NullableDatum, ptr %6, i32 0, i32 1
  %8 = load i8, ptr %7, align 8, !range !7, !noundef !8
  %9 = trunc i8 %8 to i1
  br i1 %9, label %10, label %13

10:                                               ; preds = %1
  %11 = call ptr @cstring_to_text(ptr noundef @.str)
  %12 = call i64 @PointerGetDatum(ptr noundef %11)
  store i64 %12, ptr %2, align 8
  br label %20

13:                                               ; preds = %1
  %14 = load ptr, ptr %3, align 8
  %15 = getelementptr inbounds nuw %struct.FunctionCallInfoBaseData, ptr %14, i32 0, i32 6
  %16 = getelementptr inbounds [0 x %struct.NullableDatum], ptr %15, i64 0, i64 0
  %17 = getelementptr inbounds nuw %struct.NullableDatum, ptr %16, i32 0, i32 0
  %18 = load i64, ptr %17, align 8
  %19 = call i64 @DirectFunctionCall1Coll(ptr noundef @quote_literal, i32 noundef 0, i64 noundef %18)
  store i64 %19, ptr %2, align 8
  br label %20

20:                                               ; preds = %13, %10
  %21 = load i64, ptr %2, align 8
  ret i64 %21
}

declare i64 @DirectFunctionCall1Coll(ptr noundef, i32 noundef, i64 noundef) #2


!llvm.module.flags = !{!0, !1, !2, !3}

!0 = !{i32 1, !"wchar_size", i32 4}
!1 = !{i32 8, !"PIC Level", i32 2}
!2 = !{i32 7, !"PIE Level", i32 2}
!3 = !{i32 7, !"uwtable", i32 2}
!4 = distinct !{!4, !5}
!5 = !{!"llvm.loop.mustprogress"}
!6 = distinct !{!6, !5}
!7 = !{i8 0, i8 2}
!8 = !{}
